; Function Attrs: mustprogress nofree nounwind willreturn memory(read) uwtable
define dso_local noundef zeroext i1 @_ZNK4Json5Value5emptyEv(ptr nocapture noundef nonnull readonly align 8 dereferenceable(40) %0) local_unnamed_addr #9 align 2 personality ptr @__gxx_personality_v0 {
  %2 = getelementptr inbounds i8, ptr %0, i64 8
  %3 = load i16, ptr %2, align 8
  %trunc = trunc i16 %3 to i8
  switch i8 %trunc, label %21 [
    i8 7, label %15
    i8 6, label %4
    i8 0, label %_ZNK4Json5Value4sizeEv.exit
  ]

4:                                                ; preds = %1
  %5 = load ptr, ptr %0, align 8
  %6 = getelementptr inbounds i8, ptr %5, i64 40
  %7 = load i64, ptr %6, align 8
  %8 = icmp eq i64 %7, 0
  br i1 %8, label %_ZNK4Json5Value4sizeEv.exit, label %9

9:                                                ; preds = %4
  %10 = getelementptr inbounds i8, ptr %5, i64 8
  %11 = tail call noundef ptr @_ZSt18_Rb_tree_decrementPKSt18_Rb_tree_node_base(ptr noundef nonnull %10) #36
  %12 = getelementptr inbounds i8, ptr %11, i64 40
  %13 = load i32, ptr %12, align 8
  %14 = add i32 %13, 1
  br label %_ZNK4Json5Value4sizeEv.exit

15:                                               ; preds = %1
  %16 = load ptr, ptr %0, align 8
  %17 = getelementptr inbounds i8, ptr %16, i64 40
  %18 = load i64, ptr %17, align 8
  %19 = trunc i64 %18 to i32
  br label %_ZNK4Json5Value4sizeEv.exit

_ZNK4Json5Value4sizeEv.exit:                      ; preds = %1, %4, %9, %15
  %.0.i = phi i32 [ %19, %15 ], [ %14, %9 ], [ 0, %4 ], [ 0, %1 ]
  %20 = icmp eq i32 %.0.i, 0
  br label %21

21:                                               ; preds = %1, %_ZNK4Json5Value4sizeEv.exit
  %.0 = phi i1 [ %20, %_ZNK4Json5Value4sizeEv.exit ], [ false, %1 ]
  ret i1 %.0
}